target datalayout = "e-m:e-p270:32:32-p271:32:32-p272:64:64-i64:64-i128:128-f80:128-n8:16:32:64-S128"
target triple = "x86_64-unknown-linux-gnu"

%"class.net::QuicSentPacketManager" = type { %"class.net::QuicSentPacketManagerInterface", %"class.net::QuicUnackedPacketMap", %class.linked_hash_map, i32, i8, ptr, ptr, ptr, ptr, ptr, i64, %"class.net::RttStats", %"class.std::unique_ptr", ptr, %"class.net::GeneralLossAlgorithm", i8, i64, i64, i64, i64, i64, i64, i64, i64, i8, i8, i8, i8, %"class.std::vector", %"class.std::vector", i64, i16, [6 x i8], %"class.net::PacingSender", i8, %"class.net::QuicSustainedBandwidthRecorder" }
%"class.net::QuicSentPacketManagerInterface" = type { ptr }
%"class.net::QuicUnackedPacketMap" = type { i64, i64, %"class.std::deque", i64, i64, i64 }
%"class.std::deque" = type { %"class.std::_Deque_base" }
%"class.std::_Deque_base" = type { %"struct.std::_Deque_base<net::TransmissionInfo, std::allocator<net::TransmissionInfo>>::_Deque_impl" }
%"struct.std::_Deque_base<net::TransmissionInfo, std::allocator<net::TransmissionInfo>>::_Deque_impl" = type { %"struct.std::_Deque_base<net::TransmissionInfo, std::allocator<net::TransmissionInfo>>::_Deque_impl_data" }
%"struct.std::_Deque_base<net::TransmissionInfo, std::allocator<net::TransmissionInfo>>::_Deque_impl_data" = type { ptr, i64, %"struct.std::_Deque_iterator", %"struct.std::_Deque_iterator" }
%"struct.std::_Deque_iterator" = type { ptr, ptr, ptr, ptr }
%class.linked_hash_map = type { %"class.std::unordered_map", %"class.std::__cxx11::list" }
%"class.std::unordered_map" = type { %"class.std::_Hashtable" }
%"class.std::_Hashtable" = type { ptr, i64, %"struct.std::__detail::_Hash_node_base", i64, %"struct.std::__detail::_Prime_rehash_policy", ptr }
%"struct.std::__detail::_Hash_node_base" = type { ptr }
%"struct.std::__detail::_Prime_rehash_policy" = type { float, i64 }
%"class.std::__cxx11::list" = type { %"class.std::__cxx11::_List_base" }
%"class.std::__cxx11::_List_base" = type { %"struct.std::__cxx11::_List_base<std::pair<unsigned long, net::TransmissionType>, std::allocator<std::pair<unsigned long, net::TransmissionType>>>::_List_impl" }
%"struct.std::__cxx11::_List_base<std::pair<unsigned long, net::TransmissionType>, std::allocator<std::pair<unsigned long, net::TransmissionType>>>::_List_impl" = type { %"struct.std::__detail::_List_node_header" }
%"struct.std::__detail::_List_node_header" = type { %"struct.std::__detail::_List_node_base", i64 }
%"struct.std::__detail::_List_node_base" = type { ptr, ptr }
%"class.net::RttStats" = type { %"class.net::QuicTime::Delta", %"class.net::QuicTime::Delta", %"class.net::QuicTime::Delta", %"class.net::QuicTime::Delta", %"class.net::QuicTime::Delta", i64, %"class.net::QuicTime::Delta", %"class.net::QuicTime", i32, %"class.net::WindowedFilter" }
%"class.net::QuicTime::Delta" = type { %"class.base::TimeDelta", i64 }
%"class.base::TimeDelta" = type { i64 }
%"class.net::QuicTime" = type { i64 }
%"class.net::WindowedFilter" = type { %"class.net::QuicTime::Delta", %"class.net::QuicTime::Delta", [3 x %"struct.net::WindowedFilter<net::QuicTime::Delta, net::MinFilter<net::QuicTime::Delta>, net::QuicTime, net::QuicTime::Delta>::Sample"] }
%"struct.net::WindowedFilter<net::QuicTime::Delta, net::MinFilter<net::QuicTime::Delta>, net::QuicTime, net::QuicTime::Delta>::Sample" = type { %"class.net::QuicTime::Delta", %"class.net::QuicTime" }
%"class.std::unique_ptr" = type { %"struct.std::__uniq_ptr_data" }
%"struct.std::__uniq_ptr_data" = type { %"class.std::__uniq_ptr_impl" }
%"class.std::__uniq_ptr_impl" = type { %"class.std::tuple" }
%"class.std::tuple" = type { %"struct.std::_Tuple_impl" }
%"struct.std::_Tuple_impl" = type { %"struct.std::_Head_base.9" }
%"struct.std::_Head_base.9" = type { ptr }
%"class.net::GeneralLossAlgorithm" = type { %"class.net::LossDetectionInterface", %"class.net::QuicTime", i64, i32, i32 }
%"class.net::LossDetectionInterface" = type { ptr }
%"class.std::vector" = type { %"struct.std::_Vector_base" }
%"struct.std::_Vector_base" = type { %"struct.std::_Vector_base<std::pair<unsigned long, unsigned short>, std::allocator<std::pair<unsigned long, unsigned short>>>::_Vector_impl" }
%"struct.std::_Vector_base<std::pair<unsigned long, unsigned short>, std::allocator<std::pair<unsigned long, unsigned short>>>::_Vector_impl" = type { %"struct.std::_Vector_base<std::pair<unsigned long, unsigned short>, std::allocator<std::pair<unsigned long, unsigned short>>>::_Vector_impl_data" }
%"struct.std::_Vector_base<std::pair<unsigned long, unsigned short>, std::allocator<std::pair<unsigned long, unsigned short>>>::_Vector_impl_data" = type { ptr, ptr, ptr }
%"class.net::PacingSender" = type <{ ptr, %"class.net::QuicBandwidth", i32, [4 x i8], %"class.net::QuicTime", %"class.net::QuicTime", i8, [7 x i8] }>
%"class.net::QuicBandwidth" = type { i64 }
%"class.net::QuicSustainedBandwidthRecorder" = type { i8, i8, i8, %"class.net::QuicBandwidth", %"class.net::QuicBandwidth", i64, %"class.net::QuicTime" }
%"struct.net::TransmissionInfo" = type { %"class.std::vector.34", i8, i8, i16, %"class.net::QuicTime", i8, i8, i8, i8, i16, i64, %"class.std::__cxx11::list.39" }
%"class.std::vector.34" = type { %"struct.std::_Vector_base.35" }
%"struct.std::_Vector_base.35" = type { %"struct.std::_Vector_base<net::QuicFrame, std::allocator<net::QuicFrame>>::_Vector_impl" }
%"struct.std::_Vector_base<net::QuicFrame, std::allocator<net::QuicFrame>>::_Vector_impl" = type { %"struct.std::_Vector_base<net::QuicFrame, std::allocator<net::QuicFrame>>::_Vector_impl_data" }
%"struct.std::_Vector_base<net::QuicFrame, std::allocator<net::QuicFrame>>::_Vector_impl_data" = type { ptr, ptr, ptr }
%"class.std::__cxx11::list.39" = type { %"class.std::__cxx11::_List_base.40" }
%"class.std::__cxx11::_List_base.40" = type { %"struct.std::__cxx11::_List_base<net::AckListenerWrapper, std::allocator<net::AckListenerWrapper>>::_List_impl" }
%"struct.std::__cxx11::_List_base<net::AckListenerWrapper, std::allocator<net::AckListenerWrapper>>::_List_impl" = type { %"struct.std::__detail::_List_node_header" }
%"struct.net::QuicConnectionStats" = type { i64, i64, i64, i64, i64, i64, i64, i64, i64, i64, i64, i64, i64, i64, i64, i64, i64, i64, i64, i64, i64, i64, i64, i64, i64, %"class.net::QuicBandwidth", i64, i64, i64, i32, %"class.net::QuicTime" }

; Function Attrs: mustprogress uwtable
define dso_local void @_ZN3net21QuicSentPacketManager31RecordOneSpuriousRetransmissionERKNS_16TransmissionInfoE(ptr noundef nonnull align 8 dereferenceable(776) %this, ptr noundef nonnull align 8 dereferenceable(80) %info) #0 align 2 {
entry:
  %this.addr = alloca ptr, align 8
  %info.addr = alloca ptr, align 8
  store ptr %this, ptr %this.addr, align 8
  store ptr %info, ptr %info.addr, align 8
  %this1 = load ptr, ptr %this.addr, align 8
  %0 = load ptr, ptr %info.addr, align 8
  %bytes_sent = getelementptr inbounds %"struct.net::TransmissionInfo", ptr %0, i32 0, i32 3
  %1 = load i16, ptr %bytes_sent, align 2
  %conv = zext i16 %1 to i64
  %stats_ = getelementptr inbounds %"class.net::QuicSentPacketManager", ptr %this1, i32 0, i32 6
  %2 = load ptr, ptr %stats_, align 8
  %bytes_spuriously_retransmitted = getelementptr inbounds %"struct.net::QuicConnectionStats", ptr %2, i32 0, i32 10
  %3 = load i64, ptr %bytes_spuriously_retransmitted, align 8
  %add = add i64 %3, %conv
  store i64 %add, ptr %bytes_spuriously_retransmitted, align 8
  %stats_2 = getelementptr inbounds %"class.net::QuicSentPacketManager", ptr %this1, i32 0, i32 6
  %4 = load ptr, ptr %stats_2, align 8
  %packets_spuriously_retransmitted = getelementptr inbounds %"struct.net::QuicConnectionStats", ptr %4, i32 0, i32 11
  %5 = load i64, ptr %packets_spuriously_retransmitted, align 8
  %inc = add i64 %5, 1
  store i64 %inc, ptr %packets_spuriously_retransmitted, align 8
  %debug_delegate_ = getelementptr inbounds %"class.net::QuicSentPacketManager", ptr %this1, i32 0, i32 8
  %6 = load ptr, ptr %debug_delegate_, align 8
  %cmp = icmp ne ptr %6, null
  br i1 %cmp, label %if.then, label %if.end

if.then:                                          ; preds = %entry
  %debug_delegate_3 = getelementptr inbounds %"class.net::QuicSentPacketManager", ptr %this1, i32 0, i32 8
  %7 = load ptr, ptr %debug_delegate_3, align 8
  %8 = load ptr, ptr %info.addr, align 8
  %transmission_type = getelementptr inbounds %"struct.net::TransmissionInfo", ptr %8, i32 0, i32 5
  %9 = load i8, ptr %transmission_type, align 8
  %10 = load ptr, ptr %info.addr, align 8
  %bytes_sent4 = getelementptr inbounds %"struct.net::TransmissionInfo", ptr %10, i32 0, i32 3
  %11 = load i16, ptr %bytes_sent4, align 2
  %conv5 = zext i16 %11 to i64
  %vtable = load ptr, ptr %7, align 8
  %vfn = getelementptr inbounds ptr, ptr %vtable, i64 2
  %12 = load ptr, ptr %vfn, align 8
  call void %12(ptr noundef nonnull align 8 dereferenceable(8) %7, i8 noundef signext %9, i64 noundef %conv5)
  br label %if.end

if.end:                                           ; preds = %if.then, %entry
  ret void
}

; Function Attrs: mustprogress uwtable
define dso_local void @_ZN3net21QuicSentPacketManager29RecordSpuriousRetransmissionsERKNS_16TransmissionInfoEm(ptr noundef nonnull align 8 dereferenceable(776) %this, ptr noundef nonnull align 8 dereferenceable(80) %info, i64 noundef %acked_packet_number) #0 align 2 {
entry:
  %this.addr = alloca ptr, align 8
  %info.addr = alloca ptr, align 8
  %acked_packet_number.addr = alloca i64, align 8
  %retransmission = alloca i64, align 8
  %retransmit_info = alloca ptr, align 8
  %agg.tmp = alloca %"class.net::QuicTime", align 8
  store ptr %this, ptr %this.addr, align 8
  store ptr %info, ptr %info.addr, align 8
  store i64 %acked_packet_number, ptr %acked_packet_number.addr, align 8
  %this1 = load ptr, ptr %this.addr, align 8
  %0 = load ptr, ptr %info.addr, align 8
  %retransmission2 = getelementptr inbounds %"struct.net::TransmissionInfo", ptr %0, i32 0, i32 10
  %1 = load i64, ptr %retransmission2, align 8
  store i64 %1, ptr %retransmission, align 8
  br label %while.cond

while.cond:                                       ; preds = %while.body, %entry
  %2 = load i64, ptr %retransmission, align 8
  %cmp = icmp ne i64 %2, 0
  br i1 %cmp, label %while.body, label %while.end

while.body:                                       ; preds = %while.cond
  %unacked_packets_ = getelementptr inbounds %"class.net::QuicSentPacketManager", ptr %this1, i32 0, i32 1
  %3 = load i64, ptr %retransmission, align 8
  %call = call noundef nonnull align 8 dereferenceable(80) ptr @_ZNK3net20QuicUnackedPacketMap19GetTransmissionInfoEm(ptr noundef nonnull align 8 dereferenceable(120) %unacked_packets_, i64 noundef %3)
  store ptr %call, ptr %retransmit_info, align 8
  %4 = load ptr, ptr %retransmit_info, align 8
  %retransmission3 = getelementptr inbounds %"struct.net::TransmissionInfo", ptr %4, i32 0, i32 10
  %5 = load i64, ptr %retransmission3, align 8
  store i64 %5, ptr %retransmission, align 8
  %6 = load ptr, ptr %retransmit_info, align 8
  call void @_ZN3net21QuicSentPacketManager31RecordOneSpuriousRetransmissionERKNS_16TransmissionInfoE(ptr noundef nonnull align 8 dereferenceable(776) %this1, ptr noundef nonnull align 8 dereferenceable(80) %6)
  br label %while.cond, !llvm.loop !10

while.end:                                        ; preds = %while.cond
  %unacked_packets_4 = getelementptr inbounds %"class.net::QuicSentPacketManager", ptr %this1, i32 0, i32 1
  %7 = load ptr, ptr %info.addr, align 8
  %retransmission5 = getelementptr inbounds %"struct.net::TransmissionInfo", ptr %7, i32 0, i32 10
  %8 = load i64, ptr %retransmission5, align 8
  %call6 = call noundef nonnull align 8 dereferenceable(80) ptr @_ZNK3net20QuicUnackedPacketMap19GetTransmissionInfoEm(ptr noundef nonnull align 8 dereferenceable(120) %unacked_packets_4, i64 noundef %8)
  %transmission_type = getelementptr inbounds %"struct.net::TransmissionInfo", ptr %call6, i32 0, i32 5
  %9 = load i8, ptr %transmission_type, align 8
  %conv = sext i8 %9 to i32
  %cmp7 = icmp eq i32 %conv, 4
  br i1 %cmp7, label %if.then, label %if.end

if.then:                                          ; preds = %while.end
  %loss_algorithm_ = getelementptr inbounds %"class.net::QuicSentPacketManager", ptr %this1, i32 0, i32 13
  %10 = load ptr, ptr %loss_algorithm_, align 8
  %unacked_packets_8 = getelementptr inbounds %"class.net::QuicSentPacketManager", ptr %this1, i32 0, i32 1
  %clock_ = getelementptr inbounds %"class.net::QuicSentPacketManager", ptr %this1, i32 0, i32 5
  %11 = load ptr, ptr %clock_, align 8
  %vtable = load ptr, ptr %11, align 8
  %vfn = getelementptr inbounds ptr, ptr %vtable, i64 3
  %12 = load ptr, ptr %vfn, align 8
  %call9 = call i64 %12(ptr noundef nonnull align 8 dereferenceable(8) %11)
  %coerce.dive = getelementptr inbounds %"class.net::QuicTime", ptr %agg.tmp, i32 0, i32 0
  store i64 %call9, ptr %coerce.dive, align 8
  %rtt_stats_ = getelementptr inbounds %"class.net::QuicSentPacketManager", ptr %this1, i32 0, i32 11
  %13 = load ptr, ptr %info.addr, align 8
  %retransmission10 = getelementptr inbounds %"struct.net::TransmissionInfo", ptr %13, i32 0, i32 10
  %14 = load i64, ptr %retransmission10, align 8
  %coerce.dive11 = getelementptr inbounds %"class.net::QuicTime", ptr %agg.tmp, i32 0, i32 0
  %15 = load i64, ptr %coerce.dive11, align 8
  %vtable12 = load ptr, ptr %10, align 8
  %vfn13 = getelementptr inbounds ptr, ptr %vtable12, i64 5
  %16 = load ptr, ptr %vfn13, align 8
  call void %16(ptr noundef nonnull align 8 dereferenceable(8) %10, ptr noundef nonnull align 8 dereferenceable(120) %unacked_packets_8, i64 %15, ptr noundef nonnull align 8 dereferenceable(224) %rtt_stats_, i64 noundef %14)
  br label %if.end

if.end:                                           ; preds = %if.then, %while.end
  ret void
}