; Function Attrs: mustprogress uwtable
define dso_local void @_ZN3net21QuicSentPacketManager29RecordSpuriousRetransmissionsERKNS_16TransmissionInfoEm(ptr noundef nonnull align 8 dereferenceable(776) %this, ptr nocapture noundef nonnull readonly align 8 dereferenceable(80) %info, i64 %acked_packet_number) local_unnamed_addr #0 align 2 {
entry:
  %retransmission2 = getelementptr inbounds i8, ptr %info, i64 48
  %0 = load i64, ptr %retransmission2, align 8
  %cmp.not5 = icmp eq i64 %0, 0
  br i1 %cmp.not5, label %while.end, label %while.body.lr.ph

while.body.lr.ph:                                 ; preds = %entry
  %unacked_packets_ = getelementptr inbounds i8, ptr %this, i64 8
  %stats_.i = getelementptr inbounds i8, ptr %this, i64 224
  %debug_delegate_.i = getelementptr inbounds i8, ptr %this, i64 240
  br label %while.body

while.body:                                       ; preds = %while.body.lr.ph, %_ZN3net21QuicSentPacketManager31RecordOneSpuriousRetransmissionERKNS_16TransmissionInfoE.exit
  %retransmission.06 = phi i64 [ %0, %while.body.lr.ph ], [ %1, %_ZN3net21QuicSentPacketManager31RecordOneSpuriousRetransmissionERKNS_16TransmissionInfoE.exit ]
  %call = tail call noundef nonnull align 8 dereferenceable(80) ptr @_ZNK3net20QuicUnackedPacketMap19GetTransmissionInfoEm(ptr noundef nonnull align 8 dereferenceable(120) %unacked_packets_, i64 noundef %retransmission.06)
  %retransmission3 = getelementptr inbounds i8, ptr %call, i64 48
  %1 = load i64, ptr %retransmission3, align 8
  %bytes_sent.i = getelementptr inbounds i8, ptr %call, i64 26
  %2 = load i16, ptr %bytes_sent.i, align 2
  %conv.i = zext i16 %2 to i64
  %3 = load ptr, ptr %stats_.i, align 8
  %bytes_spuriously_retransmitted.i = getelementptr inbounds i8, ptr %3, i64 80
  %4 = load i64, ptr %bytes_spuriously_retransmitted.i, align 8
  %add.i = add i64 %4, %conv.i
  store i64 %add.i, ptr %bytes_spuriously_retransmitted.i, align 8
  %5 = load ptr, ptr %stats_.i, align 8
  %packets_spuriously_retransmitted.i = getelementptr inbounds i8, ptr %5, i64 88
  %6 = load i64, ptr %packets_spuriously_retransmitted.i, align 8
  %inc.i = add i64 %6, 1
  store i64 %inc.i, ptr %packets_spuriously_retransmitted.i, align 8
  %7 = load ptr, ptr %debug_delegate_.i, align 8
  %cmp.not.i = icmp eq ptr %7, null
  br i1 %cmp.not.i, label %_ZN3net21QuicSentPacketManager31RecordOneSpuriousRetransmissionERKNS_16TransmissionInfoE.exit, label %if.then.i

if.then.i:                                        ; preds = %while.body
  %transmission_type.i = getelementptr inbounds i8, ptr %call, i64 40
  %8 = load i8, ptr %transmission_type.i, align 8
  %9 = load i16, ptr %bytes_sent.i, align 2
  %conv5.i = zext i16 %9 to i64
  %vtable.i = load ptr, ptr %7, align 8
  %vfn.i = getelementptr inbounds i8, ptr %vtable.i, i64 16
  %10 = load ptr, ptr %vfn.i, align 8
  tail call void %10(ptr noundef nonnull align 8 dereferenceable(8) %7, i8 noundef signext %8, i64 noundef %conv5.i)
  br label %_ZN3net21QuicSentPacketManager31RecordOneSpuriousRetransmissionERKNS_16TransmissionInfoE.exit

_ZN3net21QuicSentPacketManager31RecordOneSpuriousRetransmissionERKNS_16TransmissionInfoE.exit: ; preds = %while.body, %if.then.i
  %cmp.not = icmp eq i64 %1, 0
  br i1 %cmp.not, label %while.end.loopexit, label %while.body, !llvm.loop !53

while.end.loopexit:                               ; preds = %_ZN3net21QuicSentPacketManager31RecordOneSpuriousRetransmissionERKNS_16TransmissionInfoE.exit
  %.pre = load i64, ptr %retransmission2, align 8
  br label %while.end

while.end:                                        ; preds = %while.end.loopexit, %entry
  %11 = phi i64 [ %.pre, %while.end.loopexit ], [ 0, %entry ]
  %unacked_packets_4 = getelementptr inbounds i8, ptr %this, i64 8
  %call6 = tail call noundef nonnull align 8 dereferenceable(80) ptr @_ZNK3net20QuicUnackedPacketMap19GetTransmissionInfoEm(ptr noundef nonnull align 8 dereferenceable(120) %unacked_packets_4, i64 noundef %11)
  %transmission_type = getelementptr inbounds i8, ptr %call6, i64 40
  %12 = load i8, ptr %transmission_type, align 8
  %cmp7 = icmp eq i8 %12, 4
  br i1 %cmp7, label %if.then, label %if.end

if.then:                                          ; preds = %while.end
  %loss_algorithm_ = getelementptr inbounds i8, ptr %this, i64 496
  %13 = load ptr, ptr %loss_algorithm_, align 8
  %clock_ = getelementptr inbounds i8, ptr %this, i64 216
  %14 = load ptr, ptr %clock_, align 8
  %vtable = load ptr, ptr %14, align 8
  %vfn = getelementptr inbounds i8, ptr %vtable, i64 24
  %15 = load ptr, ptr %vfn, align 8
  %call9 = tail call i64 %15(ptr noundef nonnull align 8 dereferenceable(8) %14)
  %rtt_stats_ = getelementptr inbounds i8, ptr %this, i64 264
  %16 = load i64, ptr %retransmission2, align 8
  %vtable12 = load ptr, ptr %13, align 8
  %vfn13 = getelementptr inbounds i8, ptr %vtable12, i64 40
  %17 = load ptr, ptr %vfn13, align 8
  tail call void %17(ptr noundef nonnull align 8 dereferenceable(8) %13, ptr noundef nonnull align 8 dereferenceable(120) %unacked_packets_4, i64 %call9, ptr noundef nonnull align 8 dereferenceable(224) %rtt_stats_, i64 noundef %16)
  br label %if.end

if.end:                                           ; preds = %if.then, %while.end
  ret void
}